target datalayout = "e-m:e-p270:32:32-p271:32:32-p272:64:64-i64:64-i128:128-f80:128-n8:16:32:64-S128"
target triple = "x86_64-pc-linux-gnu"

%struct.rev_info = type { ptr, %struct.object_array, ptr, %struct.object_array, %struct.rev_cmdline_info, %struct.list_objects_filter_options, %struct.ref_exclusions, ptr, ptr, ptr, %struct.pathspec, i32, i32, i32, i32, i64, i32, i32, %struct.date_mode, i32, i32, i32, i32, ptr, i32, i32, ptr, ptr, i32, ptr, ptr, %struct.ident_split, ptr, i32, ptr, ptr, ptr, i32, i32, i32, ptr, %struct.grep_opt, ptr, i32, i32, i64, i64, i64, i32, i32, ptr, ptr, ptr, %struct.diff_options, %struct.diff_options, ptr, %struct.decoration, %struct.decoration, %struct.decoration, %struct.display_notes_opt, ptr, ptr, ptr, ptr, ptr, i32, ptr, i32, i32, i32, %struct.decoration, ptr, ptr, ptr, ptr, ptr, ptr, ptr, i32, ptr, i32, ptr, %struct.oidset }
%struct.object_array = type { i32, i32, ptr }
%struct.rev_cmdline_info = type { i32, i32, ptr }
%struct.list_objects_filter_options = type { %struct.strbuf, i32, i8, ptr, i64, i64, i32, i64, i64, ptr }
%struct.strbuf = type { i64, i64, ptr }
%struct.ref_exclusions = type { %struct.string_list, %struct.strvec, i8 }
%struct.string_list = type { ptr, i64, i64, i8, ptr }
%struct.strvec = type { ptr, i64, i64 }
%struct.pathspec = type { i32, i8, i32, i32, ptr }
%struct.date_mode = type { i32, i32, ptr }
%struct.ident_split = type { ptr, ptr, ptr, ptr, ptr, ptr, ptr, ptr }
%struct.grep_opt = type { ptr, ptr, ptr, ptr, ptr, ptr, i32, i32, i32, i32, i32, i32, i32, i32, i32, i32, i32, i32, i32, i32, i32, i32, i32, i32, i32, i32, i32, i32, i32, i32, i32, i32, [9 x [75 x i8]], i32, i32, i32, i32, i32, i32, i32, ptr, ptr, ptr }
%struct.diff_options = type { ptr, ptr, i32, i32, ptr, i32, ptr, i64, i64, ptr, ptr, ptr, ptr, %struct.diff_flags, i32, i32, i32, i32, i32, i32, i32, i32, i32, i32, i32, i32, i32, i32, i32, i32, i32, i32, i32, i32, i32, i32, ptr, i32, ptr, i32, i32, ptr, i64, i64, i32, i32, i32, i32, ptr, i32, i32, ptr, i32, i32, ptr, ptr, i32, [3 x i8], %struct.pathspec, ptr, ptr, ptr, ptr, ptr, ptr, ptr, ptr, i32, ptr, i32, i32, ptr, ptr, i32 }
%struct.diff_flags = type { i32, i32, i32, i32, i32, i32, i32, i32, i32, i32, i32, i32, i32, i32, i32, i32, i32, i32, i32, i32, i32, i32, i32, i32, i32, i32, i32, i32, i32, i32, i32, i32, i32, i32, i32 }
%struct.display_notes_opt = type { i32, %struct.string_list }
%struct.decoration = type { ptr, i32, i32, ptr }
%struct.oidset = type { %struct.kh_oid_set }
%struct.kh_oid_set = type { i32, i32, i32, i32, ptr, ptr, ptr }

@.str.8 = private unnamed_addr constant [55 x i8] c"--combined-all-paths makes no sense without -c or --cc\00", align 1

; Function Attrs: nounwind uwtable
define dso_local void @diff_merges_setup_revs(ptr noundef %0) #0 {
  %2 = alloca ptr, align 8
  store ptr %0, ptr %2, align 8, !tbaa !12
  %3 = load ptr, ptr %2, align 8, !tbaa !12
  %4 = getelementptr inbounds nuw %struct.rev_info, ptr %3, i32 0, i32 15
  %5 = load i64, ptr %4, align 8
  %6 = lshr i64 %5, 55
  %7 = and i64 %6, 1
  %8 = trunc i64 %7 to i32
  %9 = icmp eq i32 %8, 0
  br i1 %9, label %10, label %16

10:                                               ; preds = %1
  %11 = load ptr, ptr %2, align 8, !tbaa !12
  %12 = getelementptr inbounds nuw %struct.rev_info, ptr %11, i32 0, i32 15
  %13 = load i64, ptr %12, align 8
  %14 = and i64 %13, -144115188075855873
  %15 = or i64 %14, 0
  store i64 %15, ptr %12, align 8
  br label %16

16:                                               ; preds = %10, %1
  %17 = load ptr, ptr %2, align 8, !tbaa !12
  %18 = getelementptr inbounds nuw %struct.rev_info, ptr %17, i32 0, i32 15
  %19 = load i64, ptr %18, align 8
  %20 = lshr i64 %19, 54
  %21 = and i64 %20, 1
  %22 = trunc i64 %21 to i32
  %23 = icmp eq i32 %22, 0
  br i1 %23, label %24, label %30

24:                                               ; preds = %16
  %25 = load ptr, ptr %2, align 8, !tbaa !12
  %26 = getelementptr inbounds nuw %struct.rev_info, ptr %25, i32 0, i32 15
  %27 = load i64, ptr %26, align 8
  %28 = and i64 %27, -288230376151711745
  %29 = or i64 %28, 0
  store i64 %29, ptr %26, align 8
  br label %30

30:                                               ; preds = %24, %16
  %31 = load ptr, ptr %2, align 8, !tbaa !12
  %32 = getelementptr inbounds nuw %struct.rev_info, ptr %31, i32 0, i32 15
  %33 = load i64, ptr %32, align 8
  %34 = lshr i64 %33, 56
  %35 = and i64 %34, 1
  %36 = trunc i64 %35 to i32
  %37 = icmp ne i32 %36, 0
  br i1 %37, label %38, label %47

38:                                               ; preds = %30
  %39 = load ptr, ptr %2, align 8, !tbaa !12
  %40 = getelementptr inbounds nuw %struct.rev_info, ptr %39, i32 0, i32 15
  %41 = load i64, ptr %40, align 8
  %42 = lshr i64 %41, 55
  %43 = and i64 %42, 1
  %44 = trunc i64 %43 to i32
  %45 = icmp ne i32 %44, 0
  br i1 %45, label %47, label %46

46:                                               ; preds = %38
  call void (ptr, ...) @die(ptr noundef @.str.8) #9
  unreachable

47:                                               ; preds = %38, %30
  %48 = load ptr, ptr %2, align 8, !tbaa !12
  %49 = getelementptr inbounds nuw %struct.rev_info, ptr %48, i32 0, i32 15
  %50 = load i64, ptr %49, align 8
  %51 = lshr i64 %50, 53
  %52 = and i64 %51, 1
  %53 = trunc i64 %52 to i32
  %54 = icmp ne i32 %53, 0
  br i1 %54, label %55, label %61

55:                                               ; preds = %47
  %56 = load ptr, ptr %2, align 8, !tbaa !12
  %57 = getelementptr inbounds nuw %struct.rev_info, ptr %56, i32 0, i32 15
  %58 = load i64, ptr %57, align 8
  %59 = and i64 %58, -17592186044417
  %60 = or i64 %59, 17592186044416
  store i64 %60, ptr %57, align 8
  br label %61

61:                                               ; preds = %55, %47
  %62 = load ptr, ptr %2, align 8, !tbaa !12
  %63 = getelementptr inbounds nuw %struct.rev_info, ptr %62, i32 0, i32 15
  %64 = load i64, ptr %63, align 8
  %65 = lshr i64 %64, 53
  %66 = and i64 %65, 1
  %67 = trunc i64 %66 to i32
  %68 = icmp ne i32 %67, 0
  br i1 %68, label %77, label %69

69:                                               ; preds = %61
  %70 = load ptr, ptr %2, align 8, !tbaa !12
  %71 = getelementptr inbounds nuw %struct.rev_info, ptr %70, i32 0, i32 15
  %72 = load i64, ptr %71, align 8
  %73 = lshr i64 %72, 52
  %74 = and i64 %73, 1
  %75 = trunc i64 %74 to i32
  %76 = icmp ne i32 %75, 0
  br i1 %76, label %77, label %88

77:                                               ; preds = %69, %61
  %78 = load ptr, ptr %2, align 8, !tbaa !12
  %79 = getelementptr inbounds nuw %struct.rev_info, ptr %78, i32 0, i32 53
  %80 = getelementptr inbounds nuw %struct.diff_options, ptr %79, i32 0, i32 24
  %81 = load i32, ptr %80, align 4, !tbaa !16
  %82 = icmp ne i32 %81, 0
  br i1 %82, label %87, label %83

83:                                               ; preds = %77
  %84 = load ptr, ptr %2, align 8, !tbaa !12
  %85 = getelementptr inbounds nuw %struct.rev_info, ptr %84, i32 0, i32 53
  %86 = getelementptr inbounds nuw %struct.diff_options, ptr %85, i32 0, i32 24
  store i32 16, ptr %86, align 4, !tbaa !16
  br label %87

87:                                               ; preds = %83, %77
  br label %88

88:                                               ; preds = %87, %69
  ret void
}