; Function Attrs: nounwind uwtable
define dso_local void @diff_merges_setup_revs(ptr noundef captures(none) %0) local_unnamed_addr #4 {
  %2 = getelementptr inbounds nuw i8, ptr %0, i64 288
  %3 = load i64, ptr %2, align 8
  %4 = and i64 %3, 36028797018963968
  %.not = icmp eq i64 %4, 0
  %5 = and i64 %3, -180143985094819841
  %6 = select i1 %.not, i64 %5, i64 %3
  %7 = and i64 %6, 18014398509481984
  %.not18 = icmp eq i64 %7, 0
  %8 = and i64 %6, -306244774661193729
  %9 = select i1 %.not18, i64 %8, i64 %6
  %10 = or i1 %.not, %.not18
  br i1 %10, label %11, label %12

11:                                               ; preds = %1
  store i64 %9, ptr %2, align 8
  br label %12

12:                                               ; preds = %1, %11
  %13 = and i64 %9, 108086391056891904
  %or.cond = icmp eq i64 %13, 72057594037927936
  br i1 %or.cond, label %14, label %15

14:                                               ; preds = %12
  tail call void (ptr, ...) @die(ptr noundef nonnull @.str.8) #13
  unreachable

15:                                               ; preds = %12
  %16 = and i64 %9, 9007199254740992
  %.not13 = icmp eq i64 %16, 0
  br i1 %.not13, label %19, label %17

17:                                               ; preds = %15
  %18 = or i64 %9, 17592186044416
  store i64 %18, ptr %2, align 8
  br label %19

19:                                               ; preds = %17, %15
  %20 = phi i64 [ %18, %17 ], [ %9, %15 ]
  %21 = and i64 %20, 13510798882111488
  %or.cond17 = icmp eq i64 %21, 0
  br i1 %or.cond17, label %26, label %22

22:                                               ; preds = %19
  %23 = getelementptr inbounds nuw i8, ptr %0, i64 1748
  %24 = load i32, ptr %23, align 4, !tbaa !10
  %.not16 = icmp eq i32 %24, 0
  br i1 %.not16, label %25, label %26

25:                                               ; preds = %22
  store i32 16, ptr %23, align 4, !tbaa !10
  br label %26

26:                                               ; preds = %19, %22, %25
  ret void
}